; Function Attrs: mustprogress nounwind uwtable
define dso_local void @_ZN4llvm27ModuleToFunctionPassAdaptor13printPipelineERNS_11raw_ostreamENS_12function_refIFNS_9StringRefES4_EEE(ptr nocapture noundef nonnull readonly align 8 dereferenceable(9) %0, ptr noundef nonnull align 8 dereferenceable(48) %1, ptr %2, i64 %3) local_unnamed_addr #0 align 2 {
  %5 = getelementptr inbounds nuw i8, ptr %1, i64 24
  %6 = load ptr, ptr %5, align 8
  %7 = getelementptr inbounds nuw i8, ptr %1, i64 32
  %8 = load ptr, ptr %7, align 8
  %9 = ptrtoint ptr %6 to i64
  %10 = ptrtoint ptr %8 to i64
  %11 = sub i64 %9, %10
  %12 = icmp ult i64 %11, 8
  br i1 %12, label %13, label %15

13:                                               ; preds = %4
  %14 = tail call noundef nonnull align 8 dereferenceable(48) ptr @_ZN4llvm11raw_ostream5writeEPKcm(ptr noundef nonnull align 8 dereferenceable(48) %1, ptr noundef nonnull @.str, i64 noundef 8) #13
  %.pre14.pre = load ptr, ptr %7, align 8
  br label %_ZN4llvm11raw_ostreamlsEPKc.exit

15:                                               ; preds = %4
  store i64 7957695015192261990, ptr %8, align 1
  %16 = load ptr, ptr %7, align 8
  %17 = getelementptr inbounds i8, ptr %16, i64 8
  store ptr %17, ptr %7, align 8
  br label %_ZN4llvm11raw_ostreamlsEPKc.exit

_ZN4llvm11raw_ostreamlsEPKc.exit:                 ; preds = %13, %15
  %.pre14 = phi ptr [ %.pre14.pre, %13 ], [ %17, %15 ]
  %18 = getelementptr inbounds nuw i8, ptr %0, i64 8
  %19 = load i8, ptr %18, align 8
  %20 = trunc i8 %19 to i1
  br i1 %20, label %21, label %_ZN4llvm11raw_ostreamlsEPKc.exit10

21:                                               ; preds = %_ZN4llvm11raw_ostreamlsEPKc.exit
  %22 = load ptr, ptr %5, align 8
  %23 = ptrtoint ptr %22 to i64
  %24 = ptrtoint ptr %.pre14 to i64
  %25 = sub i64 %23, %24
  %26 = icmp ult i64 %25, 11
  br i1 %26, label %27, label %29

27:                                               ; preds = %21
  %28 = tail call noundef nonnull align 8 dereferenceable(48) ptr @_ZN4llvm11raw_ostream5writeEPKcm(ptr noundef nonnull align 8 dereferenceable(48) %1, ptr noundef nonnull @.str.1, i64 noundef 11) #13
  %.pre = load ptr, ptr %7, align 8
  br label %_ZN4llvm11raw_ostreamlsEPKc.exit10

29:                                               ; preds = %21
  tail call void @llvm.memcpy.p0.p0.i64(ptr noundef nonnull align 1 dereferenceable(11) %.pre14, ptr noundef nonnull align 1 dereferenceable(11) @.str.1, i64 11, i1 false)
  %30 = load ptr, ptr %7, align 8
  %31 = getelementptr inbounds i8, ptr %30, i64 11
  store ptr %31, ptr %7, align 8
  br label %_ZN4llvm11raw_ostreamlsEPKc.exit10

_ZN4llvm11raw_ostreamlsEPKc.exit10:               ; preds = %29, %27, %_ZN4llvm11raw_ostreamlsEPKc.exit
  %32 = phi ptr [ %31, %29 ], [ %.pre, %27 ], [ %.pre14, %_ZN4llvm11raw_ostreamlsEPKc.exit ]
  %33 = load ptr, ptr %5, align 8
  %.not.i = icmp ult ptr %32, %33
  br i1 %.not.i, label %36, label %34

34:                                               ; preds = %_ZN4llvm11raw_ostreamlsEPKc.exit10
  %35 = tail call noundef nonnull align 8 dereferenceable(48) ptr @_ZN4llvm11raw_ostream5writeEh(ptr noundef nonnull align 8 dereferenceable(48) %1, i8 noundef zeroext 40) #13
  br label %_ZN4llvm11raw_ostreamlsEc.exit

36:                                               ; preds = %_ZN4llvm11raw_ostreamlsEPKc.exit10
  %37 = getelementptr inbounds i8, ptr %32, i64 1
  store ptr %37, ptr %7, align 8
  store i8 40, ptr %32, align 1
  br label %_ZN4llvm11raw_ostreamlsEc.exit

_ZN4llvm11raw_ostreamlsEc.exit:                   ; preds = %34, %36
  %38 = load ptr, ptr %0, align 8
  %39 = load ptr, ptr %38, align 8
  %40 = getelementptr inbounds i8, ptr %39, i64 24
  %41 = load ptr, ptr %40, align 8
  tail call void %41(ptr noundef nonnull align 8 dereferenceable(8) %38, ptr noundef nonnull align 8 dereferenceable(48) %1, ptr %2, i64 %3) #13
  %42 = load ptr, ptr %7, align 8
  %43 = load ptr, ptr %5, align 8
  %.not.i11 = icmp ult ptr %42, %43
  br i1 %.not.i11, label %46, label %44

44:                                               ; preds = %_ZN4llvm11raw_ostreamlsEc.exit
  %45 = tail call noundef nonnull align 8 dereferenceable(48) ptr @_ZN4llvm11raw_ostream5writeEh(ptr noundef nonnull align 8 dereferenceable(48) %1, i8 noundef zeroext 41) #13
  br label %_ZN4llvm11raw_ostreamlsEc.exit13

46:                                               ; preds = %_ZN4llvm11raw_ostreamlsEc.exit
  %47 = getelementptr inbounds i8, ptr %42, i64 1
  store ptr %47, ptr %7, align 8
  store i8 41, ptr %42, align 1
  br label %_ZN4llvm11raw_ostreamlsEc.exit13

_ZN4llvm11raw_ostreamlsEc.exit13:                 ; preds = %44, %46
  ret void
}